; Function Attrs: nofree norecurse nosync nounwind memory(argmem: readwrite) uwtable
define internal fastcc void @unquantize_float(ptr noundef writeonly captures(none) %0, i32 noundef %1, i32 noundef %2, float noundef %3, ptr noundef readonly captures(none) %4) unnamed_addr #6 {
  %6 = icmp sgt i32 %2, 0
  %7 = icmp sgt i32 %1, 0
  %or.cond = and i1 %6, %7
  br i1 %or.cond, label %.preheader21.us.preheader, label %._crit_edge25

.preheader21.us.preheader:                        ; preds = %5
  %8 = zext nneg i32 %1 to i64
  %wide.trip.count35 = zext nneg i32 %2 to i64
  br label %.preheader21.us

.preheader21.us:                                  ; preds = %.preheader21.us.preheader, %._crit_edge.us
  %indvars.iv32 = phi i64 [ 0, %.preheader21.us.preheader ], [ %indvars.iv.next33, %._crit_edge.us ]
  %9 = mul nuw nsw i64 %indvars.iv32, %8
  br label %.preheader.us

10:                                               ; preds = %11
  %indvars.iv.next29 = add nuw nsw i64 %indvars.iv28, 1
  %exitcond31.not = icmp eq i64 %indvars.iv.next29, %8
  br i1 %exitcond31.not, label %._crit_edge.us, label %.preheader.us, !llvm.loop !40

11:                                               ; preds = %.preheader.us, %11
  %indvars.iv = phi i64 [ 0, %.preheader.us ], [ %indvars.iv.next, %11 ]
  %12 = add nsw i64 %indvars.iv, %19
  %13 = getelementptr inbounds i32, ptr %4, i64 %12
  %14 = load i32, ptr %13, align 4, !tbaa !3
  %15 = sitofp i32 %14 to float
  %16 = fmul float %3, %15
  %17 = getelementptr inbounds float, ptr %0, i64 %12
  store float %16, ptr %17, align 4, !tbaa !29
  %indvars.iv.next = add nuw nsw i64 %indvars.iv, 1
  %exitcond.not = icmp eq i64 %indvars.iv.next, 3
  br i1 %exitcond.not, label %10, label %11, !llvm.loop !41

.preheader.us:                                    ; preds = %.preheader21.us, %10
  %indvars.iv28 = phi i64 [ 0, %.preheader21.us ], [ %indvars.iv.next29, %10 ]
  %18 = add nuw nsw i64 %indvars.iv28, %9
  %sext = mul i64 %18, 12884901888
  %19 = ashr exact i64 %sext, 32
  br label %11

._crit_edge.us:                                   ; preds = %10
  %indvars.iv.next33 = add nuw nsw i64 %indvars.iv32, 1
  %exitcond36.not = icmp eq i64 %indvars.iv.next33, %wide.trip.count35
  br i1 %exitcond36.not, label %._crit_edge25, label %.preheader21.us, !llvm.loop !42

._crit_edge25:                                    ; preds = %._crit_edge.us, %5
  ret void
}